; Function Attrs: nounwind sspstrong uwtable
define internal noundef i64 @ossl_x509ext_set_critical(i64 noundef %0, i64 noundef returned %1) #0 {
  %3 = tail call ptr @rb_check_typeddata(i64 noundef %0, ptr noundef nonnull @ossl_x509ext_type) #5
  %.not = icmp eq ptr %3, null
  br i1 %.not, label %4, label %6

4:                                                ; preds = %2
  %5 = load i64, ptr @rb_eRuntimeError, align 8, !tbaa !6
  tail call void (i64, ptr, ...) @ossl_raise(i64 noundef %5, ptr noundef nonnull @.str) #6
  unreachable

6:                                                ; preds = %2
  %7 = and i64 %1, -5
  %8 = icmp ne i64 %7, 0
  %9 = zext i1 %8 to i32
  %10 = tail call i32 @X509_EXTENSION_set_critical(ptr noundef nonnull %3, i32 noundef %9) #5
  ret i64 %1
}